target datalayout = "e-m:e-p270:32:32-p271:32:32-p272:64:64-i64:64-i128:128-f80:128-n8:16:32:64-S128"
target triple = "x86_64-unknown-linux-gnu"

%"struct.facebook::velox::StlAllocator" = type { ptr }
%"struct.facebook::velox::StlAllocator.2" = type { ptr }
%"class.facebook::velox::common::hll::DenseHll" = type { i8, i8, i32, %"class.std::vector", i16, %"class.std::vector.0", %"class.std::vector" }
%"class.std::vector.0" = type { %"struct.std::_Vector_base.1" }
%"struct.std::_Vector_base.1" = type { %"struct.std::_Vector_base<unsigned short, facebook::velox::StlAllocator<unsigned short>>::_Vector_impl" }
%"struct.std::_Vector_base<unsigned short, facebook::velox::StlAllocator<unsigned short>>::_Vector_impl" = type { %"struct.facebook::velox::StlAllocator.2", %"struct.std::_Vector_base<unsigned short, facebook::velox::StlAllocator<unsigned short>>::_Vector_impl_data" }
%"struct.std::_Vector_base<unsigned short, facebook::velox::StlAllocator<unsigned short>>::_Vector_impl_data" = type { ptr, ptr, ptr }
%"class.std::vector" = type { %"struct.std::_Vector_base" }
%"struct.std::_Vector_base" = type { %"struct.std::_Vector_base<signed char, facebook::velox::StlAllocator<signed char>>::_Vector_impl" }
%"struct.std::_Vector_base<signed char, facebook::velox::StlAllocator<signed char>>::_Vector_impl" = type { %"struct.facebook::velox::StlAllocator", %"struct.std::_Vector_base<signed char, facebook::velox::StlAllocator<signed char>>::_Vector_impl_data" }
%"struct.std::_Vector_base<signed char, facebook::velox::StlAllocator<signed char>>::_Vector_impl_data" = type { ptr, ptr, ptr }

; Function Attrs: mustprogress nounwind uwtable
define linkonce_odr noundef ptr @_ZNKSt6vectorIaN8facebook5velox12StlAllocatorIaEEE11_M_data_ptrIaEEPT_S7_(ptr noundef nonnull align 8 dereferenceable(32) %this, ptr noundef %__ptr) #1 comdat align 2 {
entry:
  %this.addr = alloca ptr, align 8
  %__ptr.addr = alloca ptr, align 8
  store ptr %this, ptr %this.addr, align 8
  store ptr %__ptr, ptr %__ptr.addr, align 8
  %0 = load ptr, ptr %__ptr.addr, align 8
  ret ptr %0
}

; Function Attrs: mustprogress nounwind uwtable
define linkonce_odr noundef ptr @_ZNKSt6vectorItN8facebook5velox12StlAllocatorItEEE11_M_data_ptrItEEPT_S7_(ptr noundef nonnull align 8 dereferenceable(32) %this, ptr noundef %__ptr) #1 comdat align 2 {
entry:
  %this.addr = alloca ptr, align 8
  %__ptr.addr = alloca ptr, align 8
  store ptr %this, ptr %this.addr, align 8
  store ptr %__ptr, ptr %__ptr.addr, align 8
  %0 = load ptr, ptr %__ptr.addr, align 8
  ret ptr %0
}

; Function Attrs: mustprogress nounwind uwtable
define internal noundef signext i8 @_ZN8facebook5velox6common3hll12_GLOBAL__N_115getOverflowImplEiiPKtPKa(i32 noundef %index, i32 noundef %overflows, ptr noundef %overflowBuckets, ptr noundef %overflowValues) #1 {
entry:
  %retval = alloca i8, align 1
  %index.addr = alloca i32, align 4
  %overflows.addr = alloca i32, align 4
  %overflowBuckets.addr = alloca ptr, align 8
  %overflowValues.addr = alloca ptr, align 8
  %i = alloca i32, align 4
  store i32 %index, ptr %index.addr, align 4
  store i32 %overflows, ptr %overflows.addr, align 4
  store ptr %overflowBuckets, ptr %overflowBuckets.addr, align 8
  store ptr %overflowValues, ptr %overflowValues.addr, align 8
  store i32 0, ptr %i, align 4
  br label %for.cond

for.cond:                                         ; preds = %for.inc, %entry
  %0 = load i32, ptr %i, align 4
  %1 = load i32, ptr %overflows.addr, align 4
  %cmp = icmp slt i32 %0, %1
  br i1 %cmp, label %for.body, label %for.end

for.body:                                         ; preds = %for.cond
  %2 = load ptr, ptr %overflowBuckets.addr, align 8
  %3 = load i32, ptr %i, align 4
  %idxprom = sext i32 %3 to i64
  %arrayidx = getelementptr inbounds i16, ptr %2, i64 %idxprom
  %4 = load i16, ptr %arrayidx, align 2
  %conv = zext i16 %4 to i32
  %5 = load i32, ptr %index.addr, align 4
  %cmp1 = icmp eq i32 %conv, %5
  br i1 %cmp1, label %if.then, label %if.end

if.then:                                          ; preds = %for.body
  %6 = load ptr, ptr %overflowValues.addr, align 8
  %7 = load i32, ptr %i, align 4
  %idxprom2 = sext i32 %7 to i64
  %arrayidx3 = getelementptr inbounds i8, ptr %6, i64 %idxprom2
  %8 = load i8, ptr %arrayidx3, align 1
  store i8 %8, ptr %retval, align 1
  br label %return

if.end:                                           ; preds = %for.body
  br label %for.inc

for.inc:                                          ; preds = %if.end
  %9 = load i32, ptr %i, align 4
  %inc = add nsw i32 %9, 1
  store i32 %inc, ptr %i, align 4
  br label %for.cond, !llvm.loop !11

for.end:                                          ; preds = %for.cond
  store i8 0, ptr %retval, align 1
  br label %return

return:                                           ; preds = %for.end, %if.then
  %10 = load i8, ptr %retval, align 1
  ret i8 %10
}

; Function Attrs: mustprogress nounwind uwtable
define linkonce_odr noundef ptr @_ZNKSt6vectorIaN8facebook5velox12StlAllocatorIaEEE4dataEv(ptr noundef nonnull align 8 dereferenceable(32) %this) #1 comdat align 2 {
entry:
  %this.addr = alloca ptr, align 8
  store ptr %this, ptr %this.addr, align 8
  %this1 = load ptr, ptr %this.addr, align 8
  %_M_impl = getelementptr inbounds %"struct.std::_Vector_base", ptr %this1, i32 0, i32 0
  %add.ptr = getelementptr inbounds i8, ptr %_M_impl, i64 8
  %_M_start = getelementptr inbounds %"struct.std::_Vector_base<signed char, facebook::velox::StlAllocator<signed char>>::_Vector_impl_data", ptr %add.ptr, i32 0, i32 0
  %0 = load ptr, ptr %_M_start, align 8
  %call = call noundef ptr @_ZNKSt6vectorIaN8facebook5velox12StlAllocatorIaEEE11_M_data_ptrIaEEPT_S7_(ptr noundef nonnull align 8 dereferenceable(32) %this1, ptr noundef %0) #9
  ret ptr %call
}

; Function Attrs: mustprogress nounwind uwtable
define linkonce_odr noundef ptr @_ZNKSt6vectorItN8facebook5velox12StlAllocatorItEEE4dataEv(ptr noundef nonnull align 8 dereferenceable(32) %this) #1 comdat align 2 {
entry:
  %this.addr = alloca ptr, align 8
  store ptr %this, ptr %this.addr, align 8
  %this1 = load ptr, ptr %this.addr, align 8
  %_M_impl = getelementptr inbounds %"struct.std::_Vector_base.1", ptr %this1, i32 0, i32 0
  %add.ptr = getelementptr inbounds i8, ptr %_M_impl, i64 8
  %_M_start = getelementptr inbounds %"struct.std::_Vector_base<unsigned short, facebook::velox::StlAllocator<unsigned short>>::_Vector_impl_data", ptr %add.ptr, i32 0, i32 0
  %0 = load ptr, ptr %_M_start, align 8
  %call = call noundef ptr @_ZNKSt6vectorItN8facebook5velox12StlAllocatorItEEE11_M_data_ptrItEEPT_S7_(ptr noundef nonnull align 8 dereferenceable(32) %this1, ptr noundef %0) #9
  ret ptr %call
}

; Function Attrs: mustprogress uwtable
define noundef signext i8 @_ZNK8facebook5velox6common3hll8DenseHll11getOverflowEi(ptr noundef nonnull align 8 dereferenceable(112) %this, i32 noundef %index) #0 align 2 {
entry:
  %this.addr = alloca ptr, align 8
  %index.addr = alloca i32, align 4
  store ptr %this, ptr %this.addr, align 8
  store i32 %index, ptr %index.addr, align 4
  %this1 = load ptr, ptr %this.addr, align 8
  %0 = load i32, ptr %index.addr, align 4
  %overflows_ = getelementptr inbounds %"class.facebook::velox::common::hll::DenseHll", ptr %this1, i32 0, i32 4
  %1 = load i16, ptr %overflows_, align 8
  %conv = sext i16 %1 to i32
  %overflowBuckets_ = getelementptr inbounds %"class.facebook::velox::common::hll::DenseHll", ptr %this1, i32 0, i32 5
  %call = call noundef ptr @_ZNKSt6vectorItN8facebook5velox12StlAllocatorItEEE4dataEv(ptr noundef nonnull align 8 dereferenceable(32) %overflowBuckets_) #9
  %overflowValues_ = getelementptr inbounds %"class.facebook::velox::common::hll::DenseHll", ptr %this1, i32 0, i32 6
  %call2 = call noundef ptr @_ZNKSt6vectorIaN8facebook5velox12StlAllocatorIaEEE4dataEv(ptr noundef nonnull align 8 dereferenceable(32) %overflowValues_) #9
  %call3 = call noundef signext i8 @_ZN8facebook5velox6common3hll12_GLOBAL__N_115getOverflowImplEiiPKtPKa(i32 noundef %0, i32 noundef %conv, ptr noundef %call, ptr noundef %call2)
  ret i8 %call3
}