; Function Attrs: mustprogress nofree norecurse nosync nounwind willreturn memory(read, inaccessiblemem: none) uwtable
define noundef signext i8 @_ZNK8facebook5velox6common3hll8DenseHll11getOverflowEi(ptr noundef nonnull readonly align 8 captures(none) dereferenceable(112) %this, i32 noundef %index) local_unnamed_addr #3 align 2 {
entry:
  %overflows_ = getelementptr inbounds nuw i8, ptr %this, i64 40
  %0 = load i16, ptr %overflows_, align 8
  %add.ptr.i = getelementptr inbounds nuw i8, ptr %this, i64 56
  %1 = load ptr, ptr %add.ptr.i, align 8
  %add.ptr.i1 = getelementptr inbounds nuw i8, ptr %this, i64 88
  %2 = load ptr, ptr %add.ptr.i1, align 8
  %cmp4.i = icmp sgt i16 %0, 0
  br i1 %cmp4.i, label %for.body.preheader.i, label %_ZN8facebook5velox6common3hll12_GLOBAL__N_115getOverflowImplEiiPKtPKa.exit

for.body.preheader.i:                             ; preds = %entry
  %conv = zext nneg i16 %0 to i64
  br label %for.body.i

for.cond.i:                                       ; preds = %for.body.i
  %indvars.iv.next.i = add nuw nsw i64 %indvars.iv.i, 1
  %exitcond.not.i = icmp eq i64 %indvars.iv.next.i, %conv
  br i1 %exitcond.not.i, label %_ZN8facebook5velox6common3hll12_GLOBAL__N_115getOverflowImplEiiPKtPKa.exit, label %for.body.i, !llvm.loop !4

for.body.i:                                       ; preds = %for.cond.i, %for.body.preheader.i
  %indvars.iv.i = phi i64 [ 0, %for.body.preheader.i ], [ %indvars.iv.next.i, %for.cond.i ]
  %arrayidx.i = getelementptr inbounds nuw i16, ptr %1, i64 %indvars.iv.i
  %3 = load i16, ptr %arrayidx.i, align 2
  %conv.i = zext i16 %3 to i32
  %cmp1.i = icmp eq i32 %index, %conv.i
  br i1 %cmp1.i, label %if.then.i, label %for.cond.i

if.then.i:                                        ; preds = %for.body.i
  %arrayidx3.i = getelementptr inbounds nuw i8, ptr %2, i64 %indvars.iv.i
  %4 = load i8, ptr %arrayidx3.i, align 1
  br label %_ZN8facebook5velox6common3hll12_GLOBAL__N_115getOverflowImplEiiPKtPKa.exit

_ZN8facebook5velox6common3hll12_GLOBAL__N_115getOverflowImplEiiPKtPKa.exit: ; preds = %for.cond.i, %entry, %if.then.i
  %retval.0.i = phi i8 [ %4, %if.then.i ], [ 0, %entry ], [ 0, %for.cond.i ]
  ret i8 %retval.0.i
}